; Function Attrs: mustprogress uwtable
define hidden noundef ptr @_ZN13array_factory15mk_array_interpEP4sortRP11func_interp(ptr noundef nonnull align 8 dereferenceable(104) %this, ptr nocapture noundef readonly %s, ptr nocapture noundef nonnull writeonly align 8 dereferenceable(8) %fi) local_unnamed_addr #3 align 2 personality ptr @__gxx_personality_v0 {
entry:
  %p = alloca %class.parameter, align 8
  %m_manager = getelementptr inbounds i8, ptr %this, i64 8
  %0 = load ptr, ptr %m_manager, align 8
  %call = tail call noundef ptr @_Z26mk_aux_decl_for_array_sortR11ast_managerP4sort(ptr noundef nonnull align 8 dereferenceable(976) %0, ptr noundef %s)
  %call2 = tail call noalias noundef ptr @_ZN6memory8allocateEm(i64 noundef 56)
  %1 = load ptr, ptr %m_manager, align 8
  %m_info.i.i = getelementptr inbounds i8, ptr %s, i64 24
  %2 = load ptr, ptr %m_info.i.i, align 8
  %cmp.i.i = icmp eq ptr %2, null
  br i1 %cmp.i.i, label %_Z15get_array_arityPK4sort.exit, label %cond.false.i.i

cond.false.i.i:                                   ; preds = %entry
  %m_parameters.i.i.i = getelementptr inbounds i8, ptr %2, i64 8
  %3 = load ptr, ptr %m_parameters.i.i.i, align 8
  %cmp.i.i.i.i = icmp eq ptr %3, null
  br i1 %cmp.i.i.i.i, label %_Z15get_array_arityPK4sort.exit, label %if.end.i.i.i.i

if.end.i.i.i.i:                                   ; preds = %cond.false.i.i
  %arrayidx.i.i.i.i = getelementptr inbounds i8, ptr %3, i64 -4
  %4 = load i32, ptr %arrayidx.i.i.i.i, align 4
  %5 = add i32 %4, -1
  br label %_Z15get_array_arityPK4sort.exit

_Z15get_array_arityPK4sort.exit:                  ; preds = %entry, %cond.false.i.i, %if.end.i.i.i.i
  %cond.i.i = phi i32 [ -1, %entry ], [ %5, %if.end.i.i.i.i ], [ -1, %cond.false.i.i ]
  tail call void @_ZN11func_interpC1ER11ast_managerj(ptr noundef nonnull align 8 dereferenceable(56) %call2, ptr noundef nonnull align 8 dereferenceable(976) %1, i32 noundef %cond.i.i)
  store ptr %call2, ptr %fi, align 8
  %m_model = getelementptr inbounds i8, ptr %this, i64 24
  %6 = load ptr, ptr %m_model, align 8
  tail call void @_ZN10model_core13register_declEP9func_declP11func_interp(ptr noundef nonnull align 8 dereferenceable(96) %6, ptr noundef %call, ptr noundef nonnull %call2)
  store ptr %call, ptr %p, align 8
  %_M_index.i.i.i.i.i.i.i.i.i = getelementptr inbounds i8, ptr %p, i64 8
  store i8 1, ptr %_M_index.i.i.i.i.i.i.i.i.i, align 8
  %7 = load ptr, ptr %m_manager, align 8
  %m_fid.i = getelementptr inbounds i8, ptr %this, i64 16
  %8 = load i32, ptr %m_fid.i, align 8
  %call8 = invoke noundef ptr @_ZN11ast_manager6mk_appEiijPK9parameterjPKP4exprP4sort(ptr noundef nonnull align 8 dereferenceable(976) %7, i32 noundef %8, i32 noundef 13, i32 noundef 1, ptr noundef nonnull %p, i32 noundef 0, ptr noundef null, ptr noundef null)
          to label %invoke.cont7 unwind label %lpad

invoke.cont7:                                     ; preds = %_Z15get_array_arityPK4sort.exit
  %vtable = load ptr, ptr %this, align 8
  %vfn = getelementptr inbounds i8, ptr %vtable, i64 40
  %9 = load ptr, ptr %vfn, align 8
  invoke void %9(ptr noundef nonnull align 8 dereferenceable(96) %this, ptr noundef %call8)
          to label %invoke.cont9 unwind label %lpad

invoke.cont9:                                     ; preds = %invoke.cont7
  call void @_ZN9parameterD1Ev(ptr noundef nonnull align 8 dereferenceable(16) %p) #11
  ret ptr %call8

lpad:                                             ; preds = %invoke.cont7, %_Z15get_array_arityPK4sort.exit
  %10 = landingpad { ptr, i32 }
          cleanup
  call void @_ZN9parameterD1Ev(ptr noundef nonnull align 8 dereferenceable(16) %p) #11
  resume { ptr, i32 } %10
}